target datalayout = "e-m:e-p270:32:32-p271:32:32-p272:64:64-i64:64-i128:128-f80:128-n8:16:32:64-S128"
target triple = "x86_64-pc-linux-gnu"

%"class.osgeo::proj::util::BaseObject" = type { ptr, %"class.std::unique_ptr" }
%"class.std::unique_ptr" = type { %"struct.std::__uniq_ptr_data" }
%"struct.std::__uniq_ptr_data" = type { %"class.std::__uniq_ptr_impl" }
%"class.std::__uniq_ptr_impl" = type { %"class.std::tuple" }
%"class.std::tuple" = type { %"struct.std::_Tuple_impl" }
%"struct.std::_Tuple_impl" = type { %"struct.std::_Head_base.1" }
%"struct.std::_Head_base.1" = type { ptr }
%"class.std::__shared_count" = type { ptr }
%"class.osgeo::proj::operation::CoordinateOperation" = type { %"class.osgeo::proj::common::ObjectUsage", %"class.osgeo::proj::io::IPROJStringExportable", %"class.osgeo::proj::io::IJSONExportable", %"class.std::unique_ptr.18" }
%"class.osgeo::proj::common::ObjectUsage" = type { %"class.osgeo::proj::common::IdentifiedObject", %"class.std::unique_ptr.10" }
%"class.osgeo::proj::common::IdentifiedObject" = type { %"class.osgeo::proj::util::BaseObject", %"class.osgeo::proj::util::IComparable", %"class.osgeo::proj::io::IWKTExportable", %"class.std::unique_ptr.2" }
%"class.osgeo::proj::util::IComparable" = type { ptr }
%"class.osgeo::proj::io::IWKTExportable" = type { ptr }
%"class.std::unique_ptr.2" = type { %"struct.std::__uniq_ptr_data.3" }
%"struct.std::__uniq_ptr_data.3" = type { %"class.std::__uniq_ptr_impl.4" }
%"class.std::__uniq_ptr_impl.4" = type { %"class.std::tuple.5" }
%"class.std::tuple.5" = type { %"struct.std::_Tuple_impl.6" }
%"struct.std::_Tuple_impl.6" = type { %"struct.std::_Head_base.9" }
%"struct.std::_Head_base.9" = type { ptr }
%"class.std::unique_ptr.10" = type { %"struct.std::__uniq_ptr_data.11" }
%"struct.std::__uniq_ptr_data.11" = type { %"class.std::__uniq_ptr_impl.12" }
%"class.std::__uniq_ptr_impl.12" = type { %"class.std::tuple.13" }
%"class.std::tuple.13" = type { %"struct.std::_Tuple_impl.14" }
%"struct.std::_Tuple_impl.14" = type { %"struct.std::_Head_base.17" }
%"struct.std::_Head_base.17" = type { ptr }
%"class.osgeo::proj::io::IPROJStringExportable" = type { ptr }
%"class.osgeo::proj::io::IJSONExportable" = type { ptr }
%"class.std::unique_ptr.18" = type { %"struct.std::__uniq_ptr_data.19" }
%"struct.std::__uniq_ptr_data.19" = type { %"class.std::__uniq_ptr_impl.20" }
%"class.std::__uniq_ptr_impl.20" = type { %"class.std::tuple.21" }
%"class.std::tuple.21" = type { %"struct.std::_Tuple_impl.22" }
%"struct.std::_Tuple_impl.22" = type { %"struct.std::_Head_base.25" }
%"struct.std::_Head_base.25" = type { ptr }
%"class.osgeo::proj::operation::InverseCoordinateOperation" = type <{ ptr, %"class.dropbox::oxygen::nn.49", i8, [7 x i8], %"class.osgeo::proj::operation::CoordinateOperation" }>
%"class.dropbox::oxygen::nn.49" = type { %"class.std::shared_ptr.50" }
%"class.std::shared_ptr.50" = type { %"class.std::__shared_ptr.51" }
%"class.std::__shared_ptr.51" = type { ptr, %"class.std::__shared_count" }
%"class.std::_Sp_counted_base" = type { ptr, i32, i32 }

@__libc_single_threaded = external global i8, align 1

; Function Attrs: alwaysinline mustprogress nounwind uwtable
define linkonce_odr void @_ZN9__gnu_cxx12__atomic_addEPVii(ptr noundef %0, i32 noundef %1) #21 comdat {
  %3 = alloca ptr, align 8
  %4 = alloca i32, align 4
  %5 = alloca i32, align 4
  %6 = alloca i32, align 4
  store ptr %0, ptr %3, align 8, !tbaa !286
  store i32 %1, ptr %4, align 4, !tbaa !206
  %7 = load ptr, ptr %3, align 8, !tbaa !286
  %8 = load i32, ptr %4, align 4, !tbaa !206
  store i32 %8, ptr %5, align 4, !tbaa !206
  %9 = load i32, ptr %5, align 4
  %10 = atomicrmw volatile add ptr %7, i32 %9 acq_rel, align 4
  store i32 %10, ptr %6, align 4
  ret void
}

; Function Attrs: alwaysinline mustprogress nounwind uwtable
define linkonce_odr void @_ZN9__gnu_cxx19__atomic_add_singleEPii(ptr noundef %0, i32 noundef %1) #21 comdat {
  %3 = alloca ptr, align 8
  %4 = alloca i32, align 4
  store ptr %0, ptr %3, align 8, !tbaa !286
  store i32 %1, ptr %4, align 4, !tbaa !206
  %5 = load i32, ptr %4, align 4, !tbaa !206
  %6 = load ptr, ptr %3, align 8, !tbaa !286
  %7 = load i32, ptr %6, align 4, !tbaa !206
  %8 = add nsw i32 %7, %5
  store i32 %8, ptr %6, align 4, !tbaa !206
  ret void
}

; Function Attrs: alwaysinline mustprogress nounwind uwtable
define linkonce_odr noundef zeroext i1 @_ZN9__gnu_cxx20__is_single_threadedEv() #21 comdat {
  %1 = load i8, ptr @__libc_single_threaded, align 1, !tbaa !27
  %2 = icmp ne i8 %1, 0
  ret i1 %2
}

; Function Attrs: alwaysinline mustprogress uwtable
define linkonce_odr void @_ZN9__gnu_cxx21__atomic_add_dispatchEPii(ptr noundef %0, i32 noundef %1) #20 comdat {
  %3 = alloca ptr, align 8
  %4 = alloca i32, align 4
  store ptr %0, ptr %3, align 8, !tbaa !286
  store i32 %1, ptr %4, align 4, !tbaa !206
  %5 = call noundef zeroext i1 @_ZN9__gnu_cxx20__is_single_threadedEv() #18
  br i1 %5, label %6, label %9

6:                                                ; preds = %2
  %7 = load ptr, ptr %3, align 8, !tbaa !286
  %8 = load i32, ptr %4, align 4, !tbaa !206
  call void @_ZN9__gnu_cxx19__atomic_add_singleEPii(ptr noundef %7, i32 noundef %8)
  br label %12

9:                                                ; preds = %2
  %10 = load ptr, ptr %3, align 8, !tbaa !286
  %11 = load i32, ptr %4, align 4, !tbaa !206
  call void @_ZN9__gnu_cxx12__atomic_addEPVii(ptr noundef %10, i32 noundef %11)
  br label %12

12:                                               ; preds = %9, %6
  ret void
}

; Function Attrs: noinline noreturn nounwind uwtable
define linkonce_odr hidden void @__clang_call_terminate(ptr noundef %0) #13 comdat {
  %2 = call ptr @__cxa_begin_catch(ptr %0) #18
  call void @_ZSt9terminatev() #30
  unreachable
}

; Function Attrs: mustprogress uwtable
define linkonce_odr void @_ZNSt16_Sp_counted_baseILN9__gnu_cxx12_Lock_policyE2EE15_M_add_ref_copyEv(ptr noundef nonnull align 8 dereferenceable(16) %0) #0 comdat align 2 {
  %2 = alloca ptr, align 8
  store ptr %0, ptr %2, align 8, !tbaa !554
  %3 = load ptr, ptr %2, align 8
  %4 = getelementptr inbounds nuw %"class.std::_Sp_counted_base", ptr %3, i32 0, i32 1
  call void @_ZN9__gnu_cxx21__atomic_add_dispatchEPii(ptr noundef %4, i32 noundef 1)
  ret void
}

; Function Attrs: mustprogress nounwind uwtable
define linkonce_odr void @_ZNSt14__shared_countILN9__gnu_cxx12_Lock_policyE2EEC2ERKS2_(ptr noundef nonnull align 8 dereferenceable(8) %0, ptr noundef nonnull align 8 dereferenceable(8) %1) unnamed_addr #1 comdat align 2 personality ptr @__gxx_personality_v0 {
  %3 = alloca ptr, align 8
  %4 = alloca ptr, align 8
  store ptr %0, ptr %3, align 8, !tbaa !571
  store ptr %1, ptr %4, align 8, !tbaa !571
  %5 = load ptr, ptr %3, align 8
  %6 = getelementptr inbounds nuw %"class.std::__shared_count", ptr %5, i32 0, i32 0
  %7 = load ptr, ptr %4, align 8, !tbaa !571
  %8 = getelementptr inbounds nuw %"class.std::__shared_count", ptr %7, i32 0, i32 0
  %9 = load ptr, ptr %8, align 8, !tbaa !573
  store ptr %9, ptr %6, align 8, !tbaa !573
  %10 = getelementptr inbounds nuw %"class.std::__shared_count", ptr %5, i32 0, i32 0
  %11 = load ptr, ptr %10, align 8, !tbaa !573
  %12 = icmp ne ptr %11, null
  br i1 %12, label %13, label %17

13:                                               ; preds = %2
  %14 = getelementptr inbounds nuw %"class.std::__shared_count", ptr %5, i32 0, i32 0
  %15 = load ptr, ptr %14, align 8, !tbaa !573
  invoke void @_ZNSt16_Sp_counted_baseILN9__gnu_cxx12_Lock_policyE2EE15_M_add_ref_copyEv(ptr noundef nonnull align 8 dereferenceable(16) %15)
          to label %16 unwind label %18

16:                                               ; preds = %13
  br label %17

17:                                               ; preds = %16, %2
  ret void

18:                                               ; preds = %13
  %19 = landingpad { ptr, i32 }
          catch ptr null
  %20 = extractvalue { ptr, i32 } %19, 0
  call void @__clang_call_terminate(ptr %20) #30
  unreachable
}

; Function Attrs: mustprogress nounwind uwtable
define linkonce_odr void @_ZNSt12__shared_ptrIN5osgeo4proj9operation19CoordinateOperationELN9__gnu_cxx12_Lock_policyE2EEC2ERKS6_(ptr noundef nonnull align 8 dereferenceable(16) %0, ptr noundef nonnull align 8 dereferenceable(16) %1) unnamed_addr #1 comdat align 2 {
  %3 = alloca ptr, align 8
  %4 = alloca ptr, align 8
  store ptr %0, ptr %3, align 8, !tbaa !144
  store ptr %1, ptr %4, align 8, !tbaa !144
  %5 = load ptr, ptr %3, align 8
  %6 = getelementptr inbounds nuw %"class.std::__shared_ptr.51", ptr %5, i32 0, i32 0
  %7 = load ptr, ptr %4, align 8, !tbaa !144
  %8 = getelementptr inbounds nuw %"class.std::__shared_ptr.51", ptr %7, i32 0, i32 0
  %9 = load ptr, ptr %8, align 8, !tbaa !617
  store ptr %9, ptr %6, align 8, !tbaa !617
  %10 = getelementptr inbounds nuw %"class.std::__shared_ptr.51", ptr %5, i32 0, i32 1
  %11 = load ptr, ptr %4, align 8, !tbaa !144
  %12 = getelementptr inbounds nuw %"class.std::__shared_ptr.51", ptr %11, i32 0, i32 1
  call void @_ZNSt14__shared_countILN9__gnu_cxx12_Lock_policyE2EEC2ERKS2_(ptr noundef nonnull align 8 dereferenceable(8) %10, ptr noundef nonnull align 8 dereferenceable(8) %12) #18
  ret void
}

; Function Attrs: mustprogress nounwind uwtable
define linkonce_odr void @_ZNSt10shared_ptrIN5osgeo4proj9operation19CoordinateOperationEEC2ERKS4_(ptr noundef nonnull align 8 dereferenceable(16) %0, ptr noundef nonnull align 8 dereferenceable(16) %1) unnamed_addr #1 comdat align 2 {
  %3 = alloca ptr, align 8
  %4 = alloca ptr, align 8
  store ptr %0, ptr %3, align 8, !tbaa !142
  store ptr %1, ptr %4, align 8, !tbaa !142
  %5 = load ptr, ptr %3, align 8
  %6 = load ptr, ptr %4, align 8, !tbaa !142
  call void @_ZNSt12__shared_ptrIN5osgeo4proj9operation19CoordinateOperationELN9__gnu_cxx12_Lock_policyE2EEC2ERKS6_(ptr noundef nonnull align 8 dereferenceable(16) %5, ptr noundef nonnull align 8 dereferenceable(16) %6) #18
  ret void
}

; Function Attrs: inlinehint mustprogress nounwind uwtable
define linkonce_odr hidden void @_ZN7dropbox6oxygen2nnISt10shared_ptrIN5osgeo4proj9operation19CoordinateOperationEEEC2ERKS8_(ptr noundef nonnull align 8 dereferenceable(16) %0, ptr noundef nonnull align 8 dereferenceable(16) %1) unnamed_addr #5 comdat align 2 {
  %3 = alloca ptr, align 8
  %4 = alloca ptr, align 8
  store ptr %0, ptr %3, align 8, !tbaa !61
  store ptr %1, ptr %4, align 8, !tbaa !61
  %5 = load ptr, ptr %3, align 8
  %6 = getelementptr inbounds nuw %"class.dropbox::oxygen::nn.49", ptr %5, i32 0, i32 0
  %7 = load ptr, ptr %4, align 8, !tbaa !61
  %8 = getelementptr inbounds nuw %"class.dropbox::oxygen::nn.49", ptr %7, i32 0, i32 0
  call void @_ZNSt10shared_ptrIN5osgeo4proj9operation19CoordinateOperationEEC2ERKS4_(ptr noundef nonnull align 8 dereferenceable(16) %6, ptr noundef nonnull align 8 dereferenceable(16) %8) #18
  ret void
}

; Function Attrs: mustprogress nounwind uwtable
define hidden void @_ZN5osgeo4proj9operation26InverseCoordinateOperationC2ERKN7dropbox6oxygen2nnISt10shared_ptrINS1_19CoordinateOperationEEEEb(ptr noundef nonnull align 8 dereferenceable(25) %0, ptr noundef %1, ptr noundef nonnull align 8 dereferenceable(16) %2, i1 noundef zeroext %3) unnamed_addr #1 align 2 {
  %5 = alloca ptr, align 8
  %6 = alloca ptr, align 8
  %7 = alloca ptr, align 8
  %8 = alloca i8, align 1
  store ptr %0, ptr %5, align 8, !tbaa !55
  store ptr %1, ptr %6, align 8, !tbaa !315
  store ptr %2, ptr %7, align 8, !tbaa !61
  %9 = zext i1 %3 to i8
  store i8 %9, ptr %8, align 1, !tbaa !74
  %10 = load ptr, ptr %5, align 8
  %11 = load ptr, ptr %6, align 8
  %12 = load ptr, ptr %11, align 8
  store ptr %12, ptr %10, align 8, !tbaa !10
  %13 = getelementptr inbounds ptr, ptr %11, i64 1
  %14 = load ptr, ptr %13, align 8
  %15 = load ptr, ptr %10, align 8, !tbaa !10
  %16 = getelementptr i8, ptr %15, i64 -24
  %17 = load i64, ptr %16, align 8
  %18 = getelementptr inbounds i8, ptr %10, i64 %17
  store ptr %14, ptr %18, align 8, !tbaa !10
  %19 = getelementptr inbounds ptr, ptr %11, i64 2
  %20 = load ptr, ptr %19, align 8
  %21 = load ptr, ptr %10, align 8, !tbaa !10
  %22 = getelementptr i8, ptr %21, i64 -24
  %23 = load i64, ptr %22, align 8
  %24 = add i64 %23, 16
  %25 = getelementptr inbounds i8, ptr %10, i64 %24
  store ptr %20, ptr %25, align 8, !tbaa !10
  %26 = getelementptr inbounds ptr, ptr %11, i64 3
  %27 = load ptr, ptr %26, align 8
  %28 = load ptr, ptr %10, align 8, !tbaa !10
  %29 = getelementptr i8, ptr %28, i64 -24
  %30 = load i64, ptr %29, align 8
  %31 = add i64 %30, 24
  %32 = getelementptr inbounds i8, ptr %10, i64 %31
  store ptr %27, ptr %32, align 8, !tbaa !10
  %33 = getelementptr inbounds ptr, ptr %11, i64 4
  %34 = load ptr, ptr %33, align 8
  %35 = load ptr, ptr %10, align 8, !tbaa !10
  %36 = getelementptr i8, ptr %35, i64 -24
  %37 = load i64, ptr %36, align 8
  %38 = add i64 %37, 48
  %39 = getelementptr inbounds i8, ptr %10, i64 %38
  store ptr %34, ptr %39, align 8, !tbaa !10
  %40 = getelementptr inbounds ptr, ptr %11, i64 5
  %41 = load ptr, ptr %40, align 8
  %42 = load ptr, ptr %10, align 8, !tbaa !10
  %43 = getelementptr i8, ptr %42, i64 -24
  %44 = load i64, ptr %43, align 8
  %45 = add i64 %44, 56
  %46 = getelementptr inbounds i8, ptr %10, i64 %45
  store ptr %41, ptr %46, align 8, !tbaa !10
  %47 = getelementptr inbounds nuw %"class.osgeo::proj::operation::InverseCoordinateOperation", ptr %10, i32 0, i32 1
  %48 = load ptr, ptr %7, align 8, !tbaa !61
  call void @_ZN7dropbox6oxygen2nnISt10shared_ptrIN5osgeo4proj9operation19CoordinateOperationEEEC2ERKS8_(ptr noundef nonnull align 8 dereferenceable(16) %47, ptr noundef nonnull align 8 dereferenceable(16) %48) #18
  %49 = getelementptr inbounds nuw %"class.osgeo::proj::operation::InverseCoordinateOperation", ptr %10, i32 0, i32 2
  %50 = load i8, ptr %8, align 1, !tbaa !74, !range !25, !noundef !26
  %51 = trunc i8 %50 to i1
  %52 = zext i1 %51 to i8
  store i8 %52, ptr %49, align 8, !tbaa !514
  ret void
}