; Function Attrs: mustprogress nofree norecurse nounwind willreturn uwtable
define hidden void @_ZN5osgeo4proj9operation26InverseCoordinateOperationC2ERKN7dropbox6oxygen2nnISt10shared_ptrINS1_19CoordinateOperationEEEEb(ptr noundef nonnull align 8 captures(none) dereferenceable(25) initializes((0, 25)) %0, ptr noundef readonly captures(none) %1, ptr noundef nonnull readonly align 8 captures(none) dereferenceable(16) %2, i1 noundef zeroext %3) unnamed_addr #33 align 2 personality ptr @__gxx_personality_v0 {
  %5 = load ptr, ptr %1, align 8
  store ptr %5, ptr %0, align 8, !tbaa !3
  %6 = getelementptr inbounds nuw i8, ptr %1, i64 8
  %7 = load ptr, ptr %6, align 8
  %8 = getelementptr i8, ptr %5, i64 -24
  %9 = load i64, ptr %8, align 8
  %10 = getelementptr inbounds i8, ptr %0, i64 %9
  store ptr %7, ptr %10, align 8, !tbaa !3
  %11 = getelementptr inbounds nuw i8, ptr %1, i64 16
  %12 = load ptr, ptr %11, align 8
  %13 = load ptr, ptr %0, align 8, !tbaa !3
  %14 = getelementptr i8, ptr %13, i64 -24
  %15 = load i64, ptr %14, align 8
  %16 = getelementptr i8, ptr %0, i64 %15
  %17 = getelementptr i8, ptr %16, i64 16
  store ptr %12, ptr %17, align 8, !tbaa !3
  %18 = getelementptr inbounds nuw i8, ptr %1, i64 24
  %19 = load ptr, ptr %18, align 8
  %20 = load ptr, ptr %0, align 8, !tbaa !3
  %21 = getelementptr i8, ptr %20, i64 -24
  %22 = load i64, ptr %21, align 8
  %23 = getelementptr i8, ptr %0, i64 %22
  %24 = getelementptr i8, ptr %23, i64 24
  store ptr %19, ptr %24, align 8, !tbaa !3
  %25 = getelementptr inbounds nuw i8, ptr %1, i64 32
  %26 = load ptr, ptr %25, align 8
  %27 = load ptr, ptr %0, align 8, !tbaa !3
  %28 = getelementptr i8, ptr %27, i64 -24
  %29 = load i64, ptr %28, align 8
  %30 = getelementptr i8, ptr %0, i64 %29
  %31 = getelementptr i8, ptr %30, i64 48
  store ptr %26, ptr %31, align 8, !tbaa !3
  %32 = getelementptr inbounds nuw i8, ptr %1, i64 40
  %33 = load ptr, ptr %32, align 8
  %34 = load ptr, ptr %0, align 8, !tbaa !3
  %35 = getelementptr i8, ptr %34, i64 -24
  %36 = load i64, ptr %35, align 8
  %37 = getelementptr i8, ptr %0, i64 %36
  %38 = getelementptr i8, ptr %37, i64 56
  store ptr %33, ptr %38, align 8, !tbaa !3
  %39 = getelementptr inbounds nuw i8, ptr %0, i64 8
  %40 = load ptr, ptr %2, align 8, !tbaa !65
  store ptr %40, ptr %39, align 8, !tbaa !65
  %41 = getelementptr inbounds nuw i8, ptr %0, i64 16
  %42 = getelementptr inbounds nuw i8, ptr %2, i64 8
  %43 = load ptr, ptr %42, align 8, !tbaa !38
  store ptr %43, ptr %41, align 8, !tbaa !38
  %.not.i.i.i.i = icmp eq ptr %43, null
  br i1 %.not.i.i.i.i, label %_ZN7dropbox6oxygen2nnISt10shared_ptrIN5osgeo4proj9operation19CoordinateOperationEEEC2ERKS8_.exit, label %44

44:                                               ; preds = %4
  %45 = getelementptr inbounds nuw i8, ptr %43, i64 8
  %46 = load i8, ptr @__libc_single_threaded, align 1, !tbaa !14
  %.not.i.i.i.i.i = icmp eq i8 %46, 0
  br i1 %.not.i.i.i.i.i, label %50, label %47

47:                                               ; preds = %44
  %48 = load i32, ptr %45, align 4, !tbaa !54
  %49 = add nsw i32 %48, 1
  store i32 %49, ptr %45, align 4, !tbaa !54
  br label %_ZN7dropbox6oxygen2nnISt10shared_ptrIN5osgeo4proj9operation19CoordinateOperationEEEC2ERKS8_.exit

50:                                               ; preds = %44
  %51 = atomicrmw volatile add ptr %45, i32 1 acq_rel, align 4
  br label %_ZN7dropbox6oxygen2nnISt10shared_ptrIN5osgeo4proj9operation19CoordinateOperationEEEC2ERKS8_.exit

_ZN7dropbox6oxygen2nnISt10shared_ptrIN5osgeo4proj9operation19CoordinateOperationEEEC2ERKS8_.exit: ; preds = %4, %47, %50
  %52 = zext i1 %3 to i8
  %53 = getelementptr inbounds nuw i8, ptr %0, i64 24
  store i8 %52, ptr %53, align 8, !tbaa !992
  ret void
}